; Function Attrs: mustprogress uwtable
define void @_ZN13ATapDataModelC2ENS_13dataModelTypeEi7QStringP7QObject(ptr noundef nonnull align 8 dereferenceable(120) %0, i32 noundef %1, i32 noundef %2, ptr noundef %3, ptr noundef %4) unnamed_addr #0 align 2 personality ptr @__gxx_personality_v0 {
  %6 = alloca %class.QString, align 8
  tail call void @_ZN18QAbstractListModelC2EP7QObject(ptr noundef nonnull align 8 dereferenceable(16) %0, ptr noundef %4)
  store ptr getelementptr inbounds ({ [52 x ptr] }, ptr @_ZTV13ATapDataModel, i64 0, i32 0, i64 2), ptr %0, align 8
  %7 = getelementptr inbounds i8, ptr %0, i64 32
  tail call void @llvm.memset.p0.i64(ptr noundef nonnull align 8 dereferenceable(24) %7, i8 0, i64 24, i1 false)
  %8 = getelementptr inbounds i8, ptr %0, i64 88
  %9 = getelementptr inbounds i8, ptr %0, i64 104
  tail call void @llvm.memset.p0.i64(ptr noundef nonnull align 8 dereferenceable(16) %8, i8 0, i64 16, i1 false)
  store ptr %0, ptr %9, align 8
  %10 = getelementptr inbounds i8, ptr %0, i64 24
  store ptr null, ptr %10, align 8
  %11 = getelementptr inbounds i8, ptr %0, i64 58
  store i8 0, ptr %11, align 2
  %12 = getelementptr inbounds i8, ptr %0, i64 56
  store i8 0, ptr %12, align 8
  %13 = getelementptr inbounds i8, ptr %0, i64 57
  store i8 0, ptr %13, align 1
  %14 = getelementptr inbounds i8, ptr %0, i64 80
  store i32 %2, ptr %14, align 8
  %15 = tail call noundef nonnull align 8 dereferenceable(24) ptr @_ZN7QStringaSERKS_(ptr noundef nonnull align 8 dereferenceable(24) %7, ptr noundef nonnull align 8 dereferenceable(24) %3) #23
  %16 = getelementptr inbounds i8, ptr %0, i64 64
  %17 = getelementptr inbounds i8, ptr %0, i64 16
  tail call void @llvm.memset.p0.i64(ptr noundef nonnull align 8 dereferenceable(16) %16, i8 0, i64 16, i1 false)
  store i32 %1, ptr %17, align 8
  %18 = getelementptr inbounds i8, ptr %0, i64 59
  store i8 1, ptr %18, align 1
  %19 = invoke ptr @proto_get_protocol_filter_name(i32 noundef %2)
          to label %20 unwind label %26

20:                                               ; preds = %5
  call void @llvm.lifetime.start.p0(i64 24, ptr nonnull %6)
  %.not.i.i = icmp eq ptr %19, null
  br i1 %.not.i.i, label %_ZN7QStringD2Ev.exit.i, label %.split.i.i

.split.i.i:                                       ; preds = %20
  %21 = tail call noundef i64 @strlen(ptr noundef nonnull dereferenceable(1) %19) #23
  br label %_ZN7QStringD2Ev.exit.i

_ZN7QStringD2Ev.exit.i:                           ; preds = %.split.i.i, %20
  %.sink5.i.i = phi i64 [ %21, %.split.i.i ], [ 0, %20 ]
  invoke void @_ZN7QString8fromUtf8E14QByteArrayView(ptr dead_on_unwind nonnull writable sret(%class.QString) align 8 %6, i64 %.sink5.i.i, ptr %19)
          to label %22 unwind label %26

22:                                               ; preds = %_ZN7QStringD2Ev.exit.i
  %23 = load ptr, ptr %6, align 8
  call void @llvm.lifetime.end.p0(i64 24, ptr nonnull %6)
  %.not.i.i.i = icmp eq ptr %23, null
  br i1 %.not.i.i.i, label %_ZN7QStringD2Ev.exit, label %_ZN17QArrayDataPointerIDsE5derefEv.exit.i.i

_ZN17QArrayDataPointerIDsE5derefEv.exit.i.i:      ; preds = %22
  %24 = atomicrmw sub ptr %23, i32 1 seq_cst, align 4
  %.not.i.i6 = icmp eq i32 %24, 1
  br i1 %.not.i.i6, label %25, label %_ZN7QStringD2Ev.exit

25:                                               ; preds = %_ZN17QArrayDataPointerIDsE5derefEv.exit.i.i
  call void @_ZN10QArrayData10deallocateEPS_xx(ptr noundef nonnull %23, i64 noundef 2, i64 noundef 8) #23
  br label %_ZN7QStringD2Ev.exit

_ZN7QStringD2Ev.exit:                             ; preds = %22, %_ZN17QArrayDataPointerIDsE5derefEv.exit.i.i, %25
  ret void

26:                                               ; preds = %_ZN7QStringD2Ev.exit.i, %5
  %27 = landingpad { ptr, i32 }
          cleanup
  call void @_ZN7QStringD2Ev(ptr noundef nonnull align 8 dereferenceable(24) %7) #23
  call void @_ZN18QAbstractListModelD2Ev(ptr noundef nonnull align 8 dereferenceable(16) %0) #23
  resume { ptr, i32 } %27
}